target datalayout = "e-m:e-p270:32:32-p271:32:32-p272:64:64-i64:64-i128:128-f80:128-n8:16:32:64-S128"
target triple = "x86_64-pc-linux-gnu"

%"class.llvm::DIEDwarfExpression" = type <{ %"class.llvm::DwarfExpression", ptr, ptr, %"class.llvm::DIELoc", i8, [7 x i8] }>
%"class.llvm::DwarfExpression" = type { ptr, i8, ptr, %"class.llvm::SmallVector", i64, i32, i16, %"class.std::optional" }
%"class.llvm::SmallVector" = type { %"class.llvm::SmallVectorImpl", %"struct.llvm::SmallVectorStorage" }
%"class.llvm::SmallVectorImpl" = type { %"class.llvm::SmallVectorTemplateBase" }
%"class.llvm::SmallVectorTemplateBase" = type { %"class.llvm::SmallVectorTemplateCommon" }
%"class.llvm::SmallVectorTemplateCommon" = type { %"class.llvm::SmallVectorBase" }
%"class.llvm::SmallVectorBase" = type { ptr, i32, i32 }
%"struct.llvm::SmallVectorStorage" = type { [32 x i8] }
%"class.std::optional" = type { %"struct.std::_Optional_base" }
%"struct.std::_Optional_base" = type { %"struct.std::_Optional_payload" }
%"struct.std::_Optional_payload" = type { %"struct.std::_Optional_payload_base" }
%"struct.std::_Optional_payload_base" = type { %"union.std::_Optional_payload_base<unsigned char>::_Storage", i8 }
%"union.std::_Optional_payload_base<unsigned char>::_Storage" = type { %"struct.std::_Optional_payload_base<unsigned char>::_Empty_byte" }
%"struct.std::_Optional_payload_base<unsigned char>::_Empty_byte" = type { i8 }
%"class.llvm::DIELoc" = type <{ %"class.llvm::DIEValueList", i32, [4 x i8] }>
%"class.llvm::DIEValueList" = type { %"class.llvm::IntrusiveBackList" }
%"class.llvm::IntrusiveBackList" = type { %"struct.llvm::IntrusiveBackListBase" }
%"struct.llvm::IntrusiveBackListBase" = type { ptr }
%"struct.llvm::dwarf::FormParams" = type <{ i16, i8, i8, i8, i8 }>

; Function Attrs: mustprogress nounwind uwtable
define dso_local noundef i32 @_ZN4llvm18DIEDwarfExpression22getTemporaryBufferSizeEv(ptr noundef nonnull align 8 dereferenceable(128) %0) unnamed_addr #0 align 2 {
  %2 = alloca ptr, align 8
  %3 = alloca %"struct.llvm::dwarf::FormParams", align 2
  store ptr %0, ptr %2, align 8
  %4 = load ptr, ptr %2, align 8
  %5 = getelementptr inbounds nuw %"class.llvm::DIEDwarfExpression", ptr %4, i32 0, i32 3
  %6 = getelementptr inbounds nuw %"class.llvm::DIEDwarfExpression", ptr %4, i32 0, i32 1
  %7 = load ptr, ptr %6, align 8
  %8 = call i48 @_ZNK4llvm10AsmPrinter18getDwarfFormParamsEv(ptr noundef nonnull align 8 dereferenceable(785) %7)
  %9 = trunc i48 %8 to i40
  store i40 %9, ptr %3, align 2
  %10 = call noundef i32 @_ZNK4llvm6DIELoc11computeSizeERKNS_5dwarf10FormParamsE(ptr noundef nonnull align 8 dereferenceable(12) %5, ptr noundef nonnull align 2 dereferenceable(5) %3)
  ret i32 %10
}