; Function Attrs: mustprogress nounwind uwtable
define dso_local noundef i32 @_ZN4llvm18DIEDwarfExpression22getTemporaryBufferSizeEv(ptr noundef nonnull align 8 dereferenceable(128) %0) unnamed_addr #0 align 2 {
  %2 = alloca %"struct.llvm::dwarf::FormParams", align 8
  %3 = getelementptr inbounds nuw i8, ptr %0, i64 104
  %4 = getelementptr inbounds nuw i8, ptr %0, i64 88
  %5 = load ptr, ptr %4, align 8
  %6 = tail call i48 @_ZNK4llvm10AsmPrinter18getDwarfFormParamsEv(ptr noundef nonnull align 8 dereferenceable(785) %5) #19
  %7 = trunc i48 %6 to i40
  store i40 %7, ptr %2, align 8
  %8 = call noundef i32 @_ZNK4llvm6DIELoc11computeSizeERKNS_5dwarf10FormParamsE(ptr noundef nonnull align 8 dereferenceable(12) %3, ptr noundef nonnull align 2 dereferenceable(5) %2) #19
  ret i32 %8
}